; Function Attrs: mustprogress nofree norecurse nosync nounwind memory(readwrite, inaccessiblemem: none) uwtable
define hidden void @_ZN3sat4drat9del_watchERNS_6clauseENS_7literalE(ptr nocapture noundef nonnull readonly align 8 dereferenceable(664) %this, ptr noundef nonnull readnone align 4 dereferenceable(20) %c, i32 %l.coerce) local_unnamed_addr #9 align 2 {
entry:
  %m_watches = getelementptr inbounds i8, ptr %this, i64 624
  %xor.i = xor i32 %l.coerce, 1
  %0 = load ptr, ptr %m_watches, align 8
  %idxprom.i = zext i32 %xor.i to i64
  %arrayidx.i = getelementptr inbounds %class.svector.3, ptr %0, i64 %idxprom.i
  %1 = load ptr, ptr %arrayidx.i, align 8
  %cmp.i = icmp eq ptr %1, null
  %m_watched_clauses = getelementptr inbounds i8, ptr %this, i64 8
  %2 = load ptr, ptr %m_watched_clauses, align 8
  br i1 %cmp.i, label %for.end, label %entry.split

entry.split:                                      ; preds = %entry
  %arrayidx.i8 = getelementptr inbounds i8, ptr %1, i64 -4
  %3 = load i32, ptr %arrayidx.i8, align 4
  %wide.trip.count = zext i32 %3 to i64
  br label %for.cond

for.cond:                                         ; preds = %for.body, %entry.split
  %indvars.iv = phi i64 [ %indvars.iv.next, %for.body ], [ 0, %entry.split ]
  %exitcond.not = icmp eq i64 %indvars.iv, %wide.trip.count
  br i1 %exitcond.not, label %for.end, label %for.body

for.body:                                         ; preds = %for.cond
  %arrayidx.i10 = getelementptr inbounds i32, ptr %1, i64 %indvars.iv
  %4 = load i32, ptr %arrayidx.i10, align 4
  %idxprom.i11 = zext i32 %4 to i64
  %arrayidx.i12 = getelementptr inbounds %"struct.sat::drat::watched_clause", ptr %2, i64 %idxprom.i11
  %5 = load ptr, ptr %arrayidx.i12, align 8
  %cmp9 = icmp eq ptr %5, %c
  %indvars.iv.next = add nuw nsw i64 %indvars.iv, 1
  br i1 %cmp9, label %_ZN6vectorIjLb0EjE4backEv.exit, label %for.cond, !llvm.loop !17

_ZN6vectorIjLb0EjE4backEv.exit:                   ; preds = %for.body
  %arrayidx.i10.le = getelementptr inbounds i32, ptr %1, i64 %indvars.iv
  %6 = add i32 %3, -1
  %7 = zext i32 %6 to i64
  %arrayidx.i1.i = getelementptr inbounds i32, ptr %1, i64 %7
  %8 = load i32, ptr %arrayidx.i1.i, align 4
  store i32 %8, ptr %arrayidx.i10.le, align 4
  %9 = load ptr, ptr %arrayidx.i, align 8
  %arrayidx.i15 = getelementptr inbounds i8, ptr %9, i64 -4
  %10 = load i32, ptr %arrayidx.i15, align 4
  %dec.i = add i32 %10, -1
  store i32 %dec.i, ptr %arrayidx.i15, align 4
  br label %for.end

for.end:                                          ; preds = %for.cond, %entry, %_ZN6vectorIjLb0EjE4backEv.exit
  ret void
}